; ModuleID = 'source-C-CXX/56/388.c'
source_filename = "source-C-CXX/56/388.c"
target datalayout = "e-m:e-p270:32:32-p271:32:32-p272:64:64-i64:64-f80:128-n8:16:32:64-S128"
target triple = "x86_64-pc-linux-gnu"

@.str = private unnamed_addr constant [3 x i8] c"%d\00", align 1
@.str.1 = private unnamed_addr constant [3 x i8] c"%s\00", align 1

; Function Attrs: nofree nounwind sspstrong uwtable
define dso_local i32 @main() local_unnamed_addr #0 {
  %1 = alloca i32, align 4
  %2 = alloca [100 x i32], align 16
  %3 = alloca [101 x [101 x i8]], align 16
  %4 = bitcast i32* %1 to i8*
  call void @llvm.lifetime.start.p0i8(i64 4, i8* nonnull %4) #5
  %5 = bitcast [100 x i32]* %2 to i8*
  call void @llvm.lifetime.start.p0i8(i64 400, i8* nonnull %5) #5
  %6 = getelementptr inbounds [101 x [101 x i8]], [101 x [101 x i8]]* %3, i64 0, i64 0, i64 0
  call void @llvm.lifetime.start.p0i8(i64 10201, i8* nonnull %6) #5
  %7 = call i32 (i8*, ...) @__isoc99_scanf(i8* getelementptr inbounds ([3 x i8], [3 x i8]* @.str, i64 0, i64 0), i32* nonnull %1)
  %8 = load i32, i32* %1, align 4, !tbaa !5
  %9 = icmp sgt i32 %8, 0
  br i1 %9, label %12, label %79

10:                                               ; preds = %12
  %11 = icmp sgt i32 %20, 0
  br i1 %11, label %23, label %79

12:                                               ; preds = %0, %12
  %13 = phi i64 [ %19, %12 ], [ 0, %0 ]
  %14 = getelementptr inbounds [101 x [101 x i8]], [101 x [101 x i8]]* %3, i64 0, i64 %13, i64 0
  %15 = call i32 (i8*, ...) @__isoc99_scanf(i8* getelementptr inbounds ([3 x i8], [3 x i8]* @.str.1, i64 0, i64 0), i8* nonnull %14)
  %16 = call i64 @strlen(i8* noundef nonnull %14) #6
  %17 = trunc i64 %16 to i32
  %18 = getelementptr inbounds [100 x i32], [100 x i32]* %2, i64 0, i64 %13
  store i32 %17, i32* %18, align 4, !tbaa !5
  %19 = add nuw nsw i64 %13, 1
  %20 = load i32, i32* %1, align 4, !tbaa !5
  %21 = sext i32 %20 to i64
  %22 = icmp slt i64 %19, %21
  br i1 %22, label %12, label %10, !llvm.loop !9

23:                                               ; preds = %10, %74
  %24 = phi i64 [ %75, %74 ], [ 0, %10 ]
  %25 = getelementptr inbounds [101 x [101 x i8]], [101 x [101 x i8]]* %3, i64 0, i64 %24
  %26 = getelementptr inbounds [100 x i32], [100 x i32]* %2, i64 0, i64 %24
  %27 = load i32, i32* %26, align 4, !tbaa !5
  %28 = add nsw i32 %27, -1
  %29 = sext i32 %28 to i64
  %30 = getelementptr inbounds [101 x [101 x i8]], [101 x [101 x i8]]* %3, i64 0, i64 %24, i64 %29
  %31 = load i8, i8* %30, align 1, !tbaa !11
  %32 = icmp eq i8 %31, 114
  br i1 %32, label %33, label %43

33:                                               ; preds = %23
  %34 = add nsw i32 %27, -2
  %35 = sext i32 %34 to i64
  %36 = getelementptr inbounds [101 x [101 x i8]], [101 x [101 x i8]]* %3, i64 0, i64 %24, i64 %35
  %37 = load i8, i8* %36, align 1, !tbaa !11
  %38 = icmp eq i8 %37, 101
  br i1 %38, label %39, label %74

39:                                               ; preds = %33
  store i8 0, i8* %36, align 1, !tbaa !11
  %40 = getelementptr inbounds [101 x i8], [101 x i8]* %25, i64 0, i64 0
  %41 = call i32 @puts(i8* nonnull %40)
  %42 = load i8, i8* %30, align 1, !tbaa !11
  br label %43

43:                                               ; preds = %39, %23
  %44 = phi i8 [ %31, %23 ], [ %42, %39 ]
  %45 = icmp eq i8 %44, 103
  br i1 %45, label %46, label %62

46:                                               ; preds = %43
  %47 = add nsw i32 %27, -2
  %48 = sext i32 %47 to i64
  %49 = getelementptr inbounds [101 x [101 x i8]], [101 x [101 x i8]]* %3, i64 0, i64 %24, i64 %48
  %50 = load i8, i8* %49, align 1, !tbaa !11
  %51 = icmp eq i8 %50, 110
  br i1 %51, label %52, label %74

52:                                               ; preds = %46
  %53 = add nsw i32 %27, -3
  %54 = sext i32 %53 to i64
  %55 = getelementptr inbounds [101 x [101 x i8]], [101 x [101 x i8]]* %3, i64 0, i64 %24, i64 %54
  %56 = load i8, i8* %55, align 1, !tbaa !11
  %57 = icmp eq i8 %56, 105
  br i1 %57, label %58, label %74

58:                                               ; preds = %52
  store i8 0, i8* %55, align 1, !tbaa !11
  %59 = getelementptr inbounds [101 x i8], [101 x i8]* %25, i64 0, i64 0
  %60 = call i32 @puts(i8* nonnull %59)
  %61 = load i8, i8* %30, align 1, !tbaa !11
  br label %62

62:                                               ; preds = %58, %43
  %63 = phi i8 [ %61, %58 ], [ %44, %43 ]
  %64 = icmp eq i8 %63, 121
  br i1 %64, label %65, label %74

65:                                               ; preds = %62
  %66 = add nsw i32 %27, -2
  %67 = sext i32 %66 to i64
  %68 = getelementptr inbounds [101 x [101 x i8]], [101 x [101 x i8]]* %3, i64 0, i64 %24, i64 %67
  %69 = load i8, i8* %68, align 1, !tbaa !11
  %70 = icmp eq i8 %69, 108
  br i1 %70, label %71, label %74

71:                                               ; preds = %65
  store i8 0, i8* %68, align 1, !tbaa !11
  %72 = getelementptr inbounds [101 x i8], [101 x i8]* %25, i64 0, i64 0
  %73 = call i32 @puts(i8* nonnull %72)
  br label %74

74:                                               ; preds = %33, %52, %46, %62, %71, %65
  %75 = add nuw nsw i64 %24, 1
  %76 = load i32, i32* %1, align 4, !tbaa !5
  %77 = sext i32 %76 to i64
  %78 = icmp slt i64 %75, %77
  br i1 %78, label %23, label %79, !llvm.loop !12

79:                                               ; preds = %74, %0, %10
  call void @llvm.lifetime.end.p0i8(i64 10201, i8* nonnull %6) #5
  call void @llvm.lifetime.end.p0i8(i64 400, i8* nonnull %5) #5
  call void @llvm.lifetime.end.p0i8(i64 4, i8* nonnull %4) #5
  ret i32 0
}

; Function Attrs: argmemonly mustprogress nofree nosync nounwind willreturn
declare void @llvm.lifetime.start.p0i8(i64 immarg, i8* nocapture) #1

; Function Attrs: nofree nounwind
declare noundef i32 @__isoc99_scanf(i8* nocapture noundef readonly, ...) local_unnamed_addr #2

; Function Attrs: argmemonly mustprogress nofree nounwind readonly willreturn
declare i64 @strlen(i8* nocapture) local_unnamed_addr #3

; Function Attrs: argmemonly mustprogress nofree nosync nounwind willreturn
declare void @llvm.lifetime.end.p0i8(i64 immarg, i8* nocapture) #1

; Function Attrs: nofree nounwind
declare noundef i32 @puts(i8* nocapture noundef readonly) local_unnamed_addr #4


!llvm.module.flags = !{!0, !1, !2, !3}
!llvm.ident = !{!4}

!0 = !{i32 1, !"wchar_size", i32 4}
!1 = !{i32 7, !"PIC Level", i32 2}
!2 = !{i32 7, !"PIE Level", i32 2}
!3 = !{i32 7, !"uwtable", i32 1}
!4 = !{!"clang version 13.0.0"}
!5 = !{!6, !6, i64 0}
!6 = !{!"int", !7, i64 0}
!7 = !{!"omnipotent char", !8, i64 0}
!8 = !{!"Simple C/C++ TBAA"}
!9 = distinct !{!9, !10}
!10 = !{!"llvm.loop.mustprogress"}
!11 = !{!7, !7, i64 0}
!12 = distinct !{!12, !10}
